target datalayout = "e-m:e-p270:32:32-p271:32:32-p272:64:64-i64:64-i128:128-f80:128-n8:16:32:64-S128"
target triple = "x86_64-pc-linux-gnu"

%struct.strbuf = type { i64, i64, ptr }
%struct.packet_reader = type { i32, ptr, i64, ptr, i32, i32, i32, i32, ptr, i32, i8, ptr, ptr, %struct.strbuf }
%struct.fetch_negotiator = type { ptr, ptr, ptr, ptr, ptr, ptr }

@the_repository = external global ptr, align 8
@.str.178 = private unnamed_addr constant [4 x i8] c"NAK\00", align 1
@.str.179 = private unnamed_addr constant [5 x i8] c"ACK \00", align 1
@.str.182 = private unnamed_addr constant [6 x i8] c"ready\00", align 1
@.str.197 = private unnamed_addr constant [37 x i8] c"unexpected acknowledgment line: '%s'\00", align 1
@.str.198 = private unnamed_addr constant [26 x i8] c"error processing acks: %d\00", align 1
@.str.199 = private unnamed_addr constant [40 x i8] c"expected packfile to be sent after '%s'\00", align 1
@.str.200 = private unnamed_addr constant [52 x i8] c"expected no other sections to be sent after no '%s'\00", align 1

; Function Attrs: inlinehint nounwind uwtable
define internal zeroext i1 @skip_prefix(ptr noundef %0, ptr noundef %1, ptr noundef %2) #5 {
  %4 = alloca i1, align 1
  %5 = alloca ptr, align 8
  %6 = alloca ptr, align 8
  %7 = alloca ptr, align 8
  store ptr %0, ptr %5, align 8, !tbaa !4
  store ptr %1, ptr %6, align 8, !tbaa !4
  store ptr %2, ptr %7, align 8, !tbaa !14
  br label %8

8:                                                ; preds = %16, %3
  %9 = load ptr, ptr %6, align 8, !tbaa !4
  %10 = load i8, ptr %9, align 1, !tbaa !16
  %11 = icmp ne i8 %10, 0
  br i1 %11, label %15, label %12

12:                                               ; preds = %8
  %13 = load ptr, ptr %5, align 8, !tbaa !4
  %14 = load ptr, ptr %7, align 8, !tbaa !14
  store ptr %13, ptr %14, align 8, !tbaa !4
  store i1 true, ptr %4, align 1
  br label %27

15:                                               ; preds = %8
  br label %16

16:                                               ; preds = %15
  %17 = load ptr, ptr %5, align 8, !tbaa !4
  %18 = getelementptr inbounds nuw i8, ptr %17, i32 1
  store ptr %18, ptr %5, align 8, !tbaa !4
  %19 = load i8, ptr %17, align 1, !tbaa !16
  %20 = sext i8 %19 to i32
  %21 = load ptr, ptr %6, align 8, !tbaa !4
  %22 = getelementptr inbounds nuw i8, ptr %21, i32 1
  store ptr %22, ptr %6, align 8, !tbaa !4
  %23 = load i8, ptr %21, align 1, !tbaa !16
  %24 = sext i8 %23 to i32
  %25 = icmp eq i32 %20, %24
  br i1 %25, label %8, label %26, !llvm.loop !17

26:                                               ; preds = %16
  store i1 false, ptr %4, align 1
  br label %27

27:                                               ; preds = %26, %12
  %28 = load i1, ptr %4, align 1
  ret i1 %28
}

; Function Attrs: nounwind uwtable
define internal i32 @process_ack(ptr noundef %0, ptr noundef %1, ptr noundef %2, ptr noundef %3) #0 {
  %5 = alloca i32, align 4
  %6 = alloca ptr, align 8
  %7 = alloca ptr, align 8
  %8 = alloca ptr, align 8
  %9 = alloca ptr, align 8
  %10 = alloca ptr, align 8
  %11 = alloca i32, align 4
  %12 = alloca ptr, align 8
  store ptr %0, ptr %6, align 8, !tbaa !49
  store ptr %1, ptr %7, align 8, !tbaa !131
  store ptr %2, ptr %8, align 8, !tbaa !108
  store ptr %3, ptr %9, align 8, !tbaa !23
  br label %13

13:                                               ; preds = %62, %4
  %14 = load ptr, ptr %7, align 8, !tbaa !131
  %15 = call i32 @packet_reader_read(ptr noundef %14)
  %16 = icmp eq i32 %15, 1
  br i1 %16, label %17, label %64

17:                                               ; preds = %13
  call void @llvm.lifetime.start.p0(i64 8, ptr %10) #11
  %18 = load ptr, ptr %7, align 8, !tbaa !131
  %19 = getelementptr inbounds nuw %struct.packet_reader, ptr %18, i32 0, i32 8
  %20 = load ptr, ptr %19, align 8, !tbaa !133
  %21 = call i32 @strcmp(ptr noundef %20, ptr noundef @.str.178) #12
  %22 = icmp ne i32 %21, 0
  br i1 %22, label %24, label %23

23:                                               ; preds = %17
  store i32 2, ptr %11, align 4
  br label %62, !llvm.loop !134

24:                                               ; preds = %17
  %25 = load ptr, ptr %7, align 8, !tbaa !131
  %26 = getelementptr inbounds nuw %struct.packet_reader, ptr %25, i32 0, i32 8
  %27 = load ptr, ptr %26, align 8, !tbaa !133
  %28 = call zeroext i1 @skip_prefix(ptr noundef %27, ptr noundef @.str.179, ptr noundef %10)
  br i1 %28, label %29, label %49

29:                                               ; preds = %24
  %30 = load ptr, ptr %10, align 8, !tbaa !4
  %31 = load ptr, ptr %8, align 8, !tbaa !108
  %32 = call i32 @get_oid_hex(ptr noundef %30, ptr noundef %31)
  %33 = icmp ne i32 %32, 0
  br i1 %33, label %48, label %34

34:                                               ; preds = %29
  call void @llvm.lifetime.start.p0(i64 8, ptr %12) #11
  %35 = load ptr, ptr @the_repository, align 8, !tbaa !36
  %36 = load ptr, ptr %8, align 8, !tbaa !108
  %37 = call ptr @lookup_commit(ptr noundef %35, ptr noundef %36)
  store ptr %37, ptr %12, align 8, !tbaa !120
  %38 = load ptr, ptr %6, align 8, !tbaa !49
  %39 = icmp ne ptr %38, null
  br i1 %39, label %40, label %47

40:                                               ; preds = %34
  %41 = load ptr, ptr %6, align 8, !tbaa !49
  %42 = getelementptr inbounds nuw %struct.fetch_negotiator, ptr %41, i32 0, i32 3
  %43 = load ptr, ptr %42, align 8, !tbaa !135
  %44 = load ptr, ptr %6, align 8, !tbaa !49
  %45 = load ptr, ptr %12, align 8, !tbaa !120
  %46 = call i32 %43(ptr noundef %44, ptr noundef %45)
  br label %47

47:                                               ; preds = %40, %34
  call void @llvm.lifetime.end.p0(i64 8, ptr %12) #11
  br label %48

48:                                               ; preds = %47, %29
  store i32 1, ptr %5, align 4
  store i32 1, ptr %11, align 4
  br label %62

49:                                               ; preds = %24
  %50 = load ptr, ptr %7, align 8, !tbaa !131
  %51 = getelementptr inbounds nuw %struct.packet_reader, ptr %50, i32 0, i32 8
  %52 = load ptr, ptr %51, align 8, !tbaa !133
  %53 = call i32 @strcmp(ptr noundef %52, ptr noundef @.str.182) #12
  %54 = icmp ne i32 %53, 0
  br i1 %54, label %57, label %55

55:                                               ; preds = %49
  %56 = load ptr, ptr %9, align 8, !tbaa !23
  store i32 1, ptr %56, align 4, !tbaa !19
  store i32 2, ptr %11, align 4
  br label %62, !llvm.loop !134

57:                                               ; preds = %49
  %58 = call ptr @_(ptr noundef @.str.197)
  %59 = load ptr, ptr %7, align 8, !tbaa !131
  %60 = getelementptr inbounds nuw %struct.packet_reader, ptr %59, i32 0, i32 8
  %61 = load ptr, ptr %60, align 8, !tbaa !133
  call void (ptr, ...) @die(ptr noundef %58, ptr noundef %61) #13
  unreachable

62:                                               ; preds = %55, %48, %23
  call void @llvm.lifetime.end.p0(i64 8, ptr %10) #11
  %63 = load i32, ptr %11, align 4
  switch i32 %63, label %104 [
    i32 2, label %13
    i32 1, label %102
  ]

64:                                               ; preds = %13
  %65 = load ptr, ptr %7, align 8, !tbaa !131
  %66 = getelementptr inbounds nuw %struct.packet_reader, ptr %65, i32 0, i32 6
  %67 = load i32, ptr %66, align 8, !tbaa !136
  %68 = icmp ne i32 %67, 2
  br i1 %68, label %69, label %79

69:                                               ; preds = %64
  %70 = load ptr, ptr %7, align 8, !tbaa !131
  %71 = getelementptr inbounds nuw %struct.packet_reader, ptr %70, i32 0, i32 6
  %72 = load i32, ptr %71, align 8, !tbaa !136
  %73 = icmp ne i32 %72, 3
  br i1 %73, label %74, label %79

74:                                               ; preds = %69
  %75 = call ptr @_(ptr noundef @.str.198)
  %76 = load ptr, ptr %7, align 8, !tbaa !131
  %77 = getelementptr inbounds nuw %struct.packet_reader, ptr %76, i32 0, i32 6
  %78 = load i32, ptr %77, align 8, !tbaa !136
  call void (ptr, ...) @die(ptr noundef %75, i32 noundef %78) #13
  unreachable

79:                                               ; preds = %69, %64
  %80 = load ptr, ptr %9, align 8, !tbaa !23
  %81 = load i32, ptr %80, align 4, !tbaa !19
  %82 = icmp ne i32 %81, 0
  br i1 %82, label %83, label %90

83:                                               ; preds = %79
  %84 = load ptr, ptr %7, align 8, !tbaa !131
  %85 = getelementptr inbounds nuw %struct.packet_reader, ptr %84, i32 0, i32 6
  %86 = load i32, ptr %85, align 8, !tbaa !136
  %87 = icmp ne i32 %86, 3
  br i1 %87, label %88, label %90

88:                                               ; preds = %83
  %89 = call ptr @_(ptr noundef @.str.199)
  call void (ptr, ...) @die(ptr noundef %89, ptr noundef @.str.182) #13
  unreachable

90:                                               ; preds = %83, %79
  %91 = load ptr, ptr %9, align 8, !tbaa !23
  %92 = load i32, ptr %91, align 4, !tbaa !19
  %93 = icmp ne i32 %92, 0
  br i1 %93, label %101, label %94

94:                                               ; preds = %90
  %95 = load ptr, ptr %7, align 8, !tbaa !131
  %96 = getelementptr inbounds nuw %struct.packet_reader, ptr %95, i32 0, i32 6
  %97 = load i32, ptr %96, align 8, !tbaa !136
  %98 = icmp ne i32 %97, 2
  br i1 %98, label %99, label %101

99:                                               ; preds = %94
  %100 = call ptr @_(ptr noundef @.str.200)
  call void (ptr, ...) @die(ptr noundef %100, ptr noundef @.str.182) #13
  unreachable

101:                                              ; preds = %94, %90
  store i32 0, ptr %5, align 4
  br label %102

102:                                              ; preds = %101, %62
  %103 = load i32, ptr %5, align 4
  ret i32 %103

104:                                              ; preds = %62
  unreachable
}