; Function Attrs: nounwind uwtable
define internal fastcc range(i32 0, 2) i32 @process_ack(ptr noundef nonnull %0, ptr noundef nonnull %1, ptr noundef nonnull %2, ptr noundef nonnull captures(none) %3) unnamed_addr #0 {
  %5 = tail call i32 @packet_reader_read(ptr noundef nonnull %1) #20
  %6 = icmp eq i32 %5, 1
  br i1 %6, label %.lr.ph, label %._crit_edge

.lr.ph:                                           ; preds = %4
  %7 = getelementptr inbounds nuw i8, ptr %1, i64 48
  br label %8

8:                                                ; preds = %.lr.ph, %29
  %9 = load ptr, ptr %7, align 8, !tbaa !80
  %10 = tail call i32 @strcmp(ptr noundef nonnull dereferenceable(1) %9, ptr noundef nonnull dereferenceable(4) @.str.178) #19
  %.not28 = icmp eq i32 %10, 0
  br i1 %.not28, label %29, label %.preheader, !llvm.loop !150

.preheader:                                       ; preds = %8, %11
  %.07.i = phi ptr [ %13, %11 ], [ %9, %8 ]
  %.06.i.idx = phi i64 [ %.06.i.add, %11 ], [ 0, %8 ]
  %exitcond = icmp eq i64 %.06.i.idx, 4
  br i1 %exitcond, label %16, label %11

11:                                               ; preds = %.preheader
  %.06.i.ptr = getelementptr inbounds nuw i8, ptr @.str.179, i64 %.06.i.idx
  %12 = load i8, ptr %.06.i.ptr, align 1, !tbaa !12
  %13 = getelementptr inbounds nuw i8, ptr %.07.i, i64 1
  %14 = load i8, ptr %.07.i, align 1, !tbaa !12
  %.06.i.add = add nuw nsw i64 %.06.i.idx, 1
  %15 = icmp eq i8 %14, %12
  br i1 %15, label %.preheader, label %skip_prefix.exit, !llvm.loop !13

16:                                               ; preds = %.preheader
  %scevgep.le = getelementptr i8, ptr %9, i64 4
  %17 = tail call i32 @get_oid_hex(ptr noundef nonnull %scevgep.le, ptr noundef nonnull %2) #20
  %.not30 = icmp eq i32 %17, 0
  br i1 %.not30, label %18, label %.thread

18:                                               ; preds = %16
  %19 = load ptr, ptr @the_repository, align 8, !tbaa !17
  %20 = tail call ptr @lookup_commit(ptr noundef %19, ptr noundef nonnull %2) #20
  %21 = getelementptr inbounds nuw i8, ptr %0, i64 24
  %22 = load ptr, ptr %21, align 8, !tbaa !131
  %23 = tail call i32 %22(ptr noundef nonnull %0, ptr noundef %20) #20
  br label %.thread

skip_prefix.exit:                                 ; preds = %11
  %24 = tail call i32 @strcmp(ptr noundef nonnull dereferenceable(1) %9, ptr noundef nonnull dereferenceable(6) @.str.182) #19
  %.not29 = icmp eq i32 %24, 0
  br i1 %.not29, label %25, label %26

25:                                               ; preds = %skip_prefix.exit
  store i32 1, ptr %3, align 4, !tbaa !15
  br label %29, !llvm.loop !150

26:                                               ; preds = %skip_prefix.exit
  %27 = tail call fastcc ptr @_(ptr noundef nonnull @.str.197)
  %28 = load ptr, ptr %7, align 8, !tbaa !80
  tail call void (ptr, ...) @die(ptr noundef %27, ptr noundef %28) #21
  unreachable

29:                                               ; preds = %8, %25
  %30 = tail call i32 @packet_reader_read(ptr noundef nonnull %1) #20
  %31 = icmp eq i32 %30, 1
  br i1 %31, label %8, label %._crit_edge

._crit_edge:                                      ; preds = %29, %4
  %32 = getelementptr inbounds nuw i8, ptr %1, i64 40
  %33 = load i32, ptr %32, align 8, !tbaa !82
  %34 = and i32 %33, -2
  %switch31 = icmp eq i32 %34, 2
  br i1 %switch31, label %38, label %35

35:                                               ; preds = %._crit_edge
  %36 = tail call fastcc ptr @_(ptr noundef nonnull @.str.198)
  %37 = load i32, ptr %32, align 8, !tbaa !82
  tail call void (ptr, ...) @die(ptr noundef %36, i32 noundef %37) #21
  unreachable

38:                                               ; preds = %._crit_edge
  %39 = load i32, ptr %3, align 4, !tbaa !15
  %.not24 = icmp eq i32 %39, 0
  br i1 %.not24, label %43, label %40

40:                                               ; preds = %38
  %.not25 = icmp eq i32 %33, 3
  br i1 %.not25, label %.thread, label %41

41:                                               ; preds = %40
  %42 = tail call fastcc ptr @_(ptr noundef nonnull @.str.199)
  tail call void (ptr, ...) @die(ptr noundef %42, ptr noundef nonnull @.str.182) #21
  unreachable

43:                                               ; preds = %38
  %.not27 = icmp eq i32 %33, 2
  br i1 %.not27, label %.thread, label %44

44:                                               ; preds = %43
  %45 = tail call fastcc ptr @_(ptr noundef nonnull @.str.200)
  tail call void (ptr, ...) @die(ptr noundef %45, ptr noundef nonnull @.str.182) #21
  unreachable

.thread:                                          ; preds = %16, %18, %40, %43
  %.2 = phi i32 [ 0, %43 ], [ 0, %40 ], [ 1, %18 ], [ 1, %16 ]
  ret i32 %.2
}